target datalayout = "e-m:e-p270:32:32-p271:32:32-p272:64:64-i64:64-i128:128-f80:128-n8:16:32:64-S128"
target triple = "x86_64-pc-linux-gnu"

%class.CoverageTestExtension = type { %class.AbsExtension, i32, %"class.std::vector", %"class.std::vector.3" }
%class.AbsExtension = type { ptr }
%"class.std::vector" = type { %"struct.std::_Vector_base" }
%"struct.std::_Vector_base" = type { %"struct.std::_Vector_base<ExtensionValue *, std::allocator<ExtensionValue *>>::_Vector_impl" }
%"struct.std::_Vector_base<ExtensionValue *, std::allocator<ExtensionValue *>>::_Vector_impl" = type { %"struct.std::_Vector_base<ExtensionValue *, std::allocator<ExtensionValue *>>::_Vector_impl_data" }
%"struct.std::_Vector_base<ExtensionValue *, std::allocator<ExtensionValue *>>::_Vector_impl_data" = type { ptr, ptr, ptr }
%"class.std::vector.3" = type { %"struct.std::_Vector_base.4" }
%"struct.std::_Vector_base.4" = type { %"struct.std::_Vector_base<Constant *, std::allocator<Constant *>>::_Vector_impl" }
%"struct.std::_Vector_base<Constant *, std::allocator<Constant *>>::_Vector_impl" = type { %"struct.std::_Vector_base<Constant *, std::allocator<Constant *>>::_Vector_impl_data" }
%"struct.std::_Vector_base<Constant *, std::allocator<Constant *>>::_Vector_impl_data" = type { ptr, ptr, ptr }

@_ZN12AbsExtension4tab_E = external global ptr, align 8
@.str.4 = private unnamed_addr constant [3 x i8] c", \00", align 1

; Function Attrs: mustprogress nounwind uwtable
define linkonce_odr dso_local noundef nonnull align 8 dereferenceable(8) ptr @_ZNSt6vectorIP8ConstantSaIS1_EEixEm(ptr noundef nonnull align 8 dereferenceable(24) %0, i64 noundef %1) #5 comdat align 2 {
  %3 = alloca ptr, align 8
  %4 = alloca i64, align 8
  store ptr %0, ptr %3, align 8
  store i64 %1, ptr %4, align 8
  %5 = load ptr, ptr %3, align 8
  %6 = getelementptr inbounds %"struct.std::_Vector_base.4", ptr %5, i32 0, i32 0
  %7 = getelementptr inbounds %"struct.std::_Vector_base<Constant *, std::allocator<Constant *>>::_Vector_impl_data", ptr %6, i32 0, i32 0
  %8 = load ptr, ptr %7, align 8
  %9 = load i64, ptr %4, align 8
  %10 = getelementptr inbounds ptr, ptr %8, i64 %9
  ret ptr %10
}

; Function Attrs: mustprogress uwtable
define dso_local void @_ZN21CoverageTestExtension17output_array_initERSoi(ptr noundef nonnull align 8 dereferenceable(64) %0, ptr noundef nonnull align 8 dereferenceable(8) %1, i32 noundef %2) #4 align 2 {
  %4 = alloca ptr, align 8
  %5 = alloca ptr, align 8
  %6 = alloca i32, align 4
  %7 = alloca i32, align 4
  %8 = alloca i32, align 4
  %9 = alloca i32, align 4
  store ptr %0, ptr %4, align 8
  store ptr %1, ptr %5, align 8
  store i32 %2, ptr %6, align 4
  %10 = load ptr, ptr %4, align 8
  %11 = getelementptr inbounds %class.CoverageTestExtension, ptr %10, i32 0, i32 1
  %12 = load i32, ptr %11, align 8
  %13 = icmp eq i32 %12, 1
  br i1 %13, label %14, label %24

14:                                               ; preds = %3
  %15 = getelementptr inbounds %class.CoverageTestExtension, ptr %10, i32 0, i32 3
  %16 = load i32, ptr %6, align 4
  %17 = sext i32 %16 to i64
  %18 = call noundef nonnull align 8 dereferenceable(8) ptr @_ZNSt6vectorIP8ConstantSaIS1_EEixEm(ptr noundef nonnull align 8 dereferenceable(24) %15, i64 noundef %17) #3
  %19 = load ptr, ptr %18, align 8
  %20 = load ptr, ptr %5, align 8
  %21 = load ptr, ptr %19, align 8
  %22 = getelementptr inbounds ptr, ptr %21, i64 18
  %23 = load ptr, ptr %22, align 8
  call void %23(ptr noundef nonnull align 8 dereferenceable(64) %19, ptr noundef nonnull align 8 dereferenceable(8) %20)
  br label %86

24:                                               ; preds = %3
  store i32 0, ptr %7, align 4
  %25 = getelementptr inbounds %class.CoverageTestExtension, ptr %10, i32 0, i32 1
  %26 = load i32, ptr %25, align 8
  %27 = load i32, ptr %6, align 4
  %28 = add nsw i32 %26, %27
  %29 = sub nsw i32 %28, 1
  store i32 %29, ptr %8, align 4
  %30 = load i32, ptr %6, align 4
  store i32 %30, ptr %9, align 4
  br label %31

31:                                               ; preds = %61, %24
  %32 = load i32, ptr %9, align 4
  %33 = load i32, ptr %8, align 4
  %34 = icmp slt i32 %32, %33
  br i1 %34, label %35, label %64

35:                                               ; preds = %31
  %36 = load i32, ptr %7, align 4
  %37 = srem i32 %36, 10
  %38 = icmp eq i32 %37, 0
  br i1 %38, label %39, label %47

39:                                               ; preds = %35
  %40 = load ptr, ptr %5, align 8
  %41 = call noundef nonnull align 8 dereferenceable(8) ptr @_ZNSolsEPFRSoS_E(ptr noundef nonnull align 8 dereferenceable(8) %40, ptr noundef @_ZSt4endlIcSt11char_traitsIcEERSt13basic_ostreamIT_T0_ES6_)
  %42 = load ptr, ptr %5, align 8
  %43 = load ptr, ptr @_ZN12AbsExtension4tab_E, align 8
  %44 = call noundef nonnull align 8 dereferenceable(8) ptr @_ZStlsISt11char_traitsIcEERSt13basic_ostreamIcT_ES5_PKc(ptr noundef nonnull align 8 dereferenceable(8) %42, ptr noundef %43)
  %45 = load ptr, ptr @_ZN12AbsExtension4tab_E, align 8
  %46 = call noundef nonnull align 8 dereferenceable(8) ptr @_ZStlsISt11char_traitsIcEERSt13basic_ostreamIcT_ES5_PKc(ptr noundef nonnull align 8 dereferenceable(8) %44, ptr noundef %45)
  br label %47

47:                                               ; preds = %39, %35
  %48 = getelementptr inbounds %class.CoverageTestExtension, ptr %10, i32 0, i32 3
  %49 = load i32, ptr %9, align 4
  %50 = sext i32 %49 to i64
  %51 = call noundef nonnull align 8 dereferenceable(8) ptr @_ZNSt6vectorIP8ConstantSaIS1_EEixEm(ptr noundef nonnull align 8 dereferenceable(24) %48, i64 noundef %50) #3
  %52 = load ptr, ptr %51, align 8
  %53 = load ptr, ptr %5, align 8
  %54 = load ptr, ptr %52, align 8
  %55 = getelementptr inbounds ptr, ptr %54, i64 18
  %56 = load ptr, ptr %55, align 8
  call void %56(ptr noundef nonnull align 8 dereferenceable(64) %52, ptr noundef nonnull align 8 dereferenceable(8) %53)
  %57 = load ptr, ptr %5, align 8
  %58 = call noundef nonnull align 8 dereferenceable(8) ptr @_ZStlsISt11char_traitsIcEERSt13basic_ostreamIcT_ES5_PKc(ptr noundef nonnull align 8 dereferenceable(8) %57, ptr noundef @.str.4)
  %59 = load i32, ptr %7, align 4
  %60 = add nsw i32 %59, 1
  store i32 %60, ptr %7, align 4
  br label %61

61:                                               ; preds = %47
  %62 = load i32, ptr %9, align 4
  %63 = add nsw i32 %62, 1
  store i32 %63, ptr %9, align 4
  br label %31, !llvm.loop !8

64:                                               ; preds = %31
  %65 = load i32, ptr %7, align 4
  %66 = srem i32 %65, 10
  %67 = icmp eq i32 %66, 0
  br i1 %67, label %68, label %76

68:                                               ; preds = %64
  %69 = load ptr, ptr %5, align 8
  %70 = call noundef nonnull align 8 dereferenceable(8) ptr @_ZNSolsEPFRSoS_E(ptr noundef nonnull align 8 dereferenceable(8) %69, ptr noundef @_ZSt4endlIcSt11char_traitsIcEERSt13basic_ostreamIT_T0_ES6_)
  %71 = load ptr, ptr %5, align 8
  %72 = load ptr, ptr @_ZN12AbsExtension4tab_E, align 8
  %73 = call noundef nonnull align 8 dereferenceable(8) ptr @_ZStlsISt11char_traitsIcEERSt13basic_ostreamIcT_ES5_PKc(ptr noundef nonnull align 8 dereferenceable(8) %71, ptr noundef %72)
  %74 = load ptr, ptr @_ZN12AbsExtension4tab_E, align 8
  %75 = call noundef nonnull align 8 dereferenceable(8) ptr @_ZStlsISt11char_traitsIcEERSt13basic_ostreamIcT_ES5_PKc(ptr noundef nonnull align 8 dereferenceable(8) %73, ptr noundef %74)
  br label %76

76:                                               ; preds = %68, %64
  %77 = getelementptr inbounds %class.CoverageTestExtension, ptr %10, i32 0, i32 3
  %78 = load i32, ptr %8, align 4
  %79 = sext i32 %78 to i64
  %80 = call noundef nonnull align 8 dereferenceable(8) ptr @_ZNSt6vectorIP8ConstantSaIS1_EEixEm(ptr noundef nonnull align 8 dereferenceable(24) %77, i64 noundef %79) #3
  %81 = load ptr, ptr %80, align 8
  %82 = load ptr, ptr %5, align 8
  %83 = load ptr, ptr %81, align 8
  %84 = getelementptr inbounds ptr, ptr %83, i64 18
  %85 = load ptr, ptr %84, align 8
  call void %85(ptr noundef nonnull align 8 dereferenceable(64) %81, ptr noundef nonnull align 8 dereferenceable(8) %82)
  br label %86

86:                                               ; preds = %76, %14
  ret void
}