; Function Attrs: mustprogress uwtable
define dso_local void @_ZN21CoverageTestExtension17output_array_initERSoi(ptr nocapture noundef nonnull readonly align 8 dereferenceable(64) %0, ptr noundef nonnull align 8 dereferenceable(8) %1, i32 noundef %2) local_unnamed_addr #3 align 2 {
  %4 = getelementptr inbounds i8, ptr %0, i64 8
  %5 = load i32, ptr %4, align 8
  %6 = icmp eq i32 %5, 1
  br i1 %6, label %39, label %7

7:                                                ; preds = %3
  %8 = add i32 %2, -1
  %9 = add i32 %8, %5
  %10 = icmp sgt i32 %9, %2
  br i1 %10, label %.lr.ph, label %._crit_edge.thread

.lr.ph:                                           ; preds = %7
  %11 = getelementptr inbounds i8, ptr %0, i64 40
  %12 = sext i32 %2 to i64
  %13 = add i32 %5, -1
  br label %14

14:                                               ; preds = %.lr.ph, %23
  %indvars.iv = phi i64 [ %12, %.lr.ph ], [ %indvars.iv.next, %23 ]
  %.01922 = phi i32 [ 0, %.lr.ph ], [ %31, %23 ]
  %15 = urem i32 %.01922, 10
  %16 = icmp eq i32 %15, 0
  br i1 %16, label %17, label %23

17:                                               ; preds = %14
  %18 = tail call noundef nonnull align 8 dereferenceable(8) ptr @_ZNSolsEPFRSoS_E(ptr noundef nonnull align 8 dereferenceable(8) %1, ptr noundef nonnull @_ZSt4endlIcSt11char_traitsIcEERSt13basic_ostreamIT_T0_ES6_)
  %19 = load ptr, ptr @_ZN12AbsExtension4tab_E, align 8
  %20 = tail call noundef nonnull align 8 dereferenceable(8) ptr @_ZStlsISt11char_traitsIcEERSt13basic_ostreamIcT_ES5_PKc(ptr noundef nonnull align 8 dereferenceable(8) %1, ptr noundef %19)
  %21 = load ptr, ptr @_ZN12AbsExtension4tab_E, align 8
  %22 = tail call noundef nonnull align 8 dereferenceable(8) ptr @_ZStlsISt11char_traitsIcEERSt13basic_ostreamIcT_ES5_PKc(ptr noundef nonnull align 8 dereferenceable(8) %20, ptr noundef %21)
  br label %23

23:                                               ; preds = %17, %14
  %24 = load ptr, ptr %11, align 8
  %25 = getelementptr inbounds ptr, ptr %24, i64 %indvars.iv
  %26 = load ptr, ptr %25, align 8
  %27 = load ptr, ptr %26, align 8
  %28 = getelementptr inbounds i8, ptr %27, i64 144
  %29 = load ptr, ptr %28, align 8
  tail call void %29(ptr noundef nonnull align 8 dereferenceable(64) %26, ptr noundef nonnull align 8 dereferenceable(8) %1)
  %30 = tail call noundef nonnull align 8 dereferenceable(8) ptr @_ZStlsISt11char_traitsIcEERSt13basic_ostreamIcT_ES5_PKc(ptr noundef nonnull align 8 dereferenceable(8) %1, ptr noundef nonnull @.str.4)
  %31 = add nuw i32 %.01922, 1
  %indvars.iv.next = add nsw i64 %indvars.iv, 1
  %exitcond.not = icmp eq i32 %31, %13
  br i1 %exitcond.not, label %._crit_edge, label %14, !llvm.loop !9

._crit_edge:                                      ; preds = %23
  %32 = urem i32 %13, 10
  %33 = icmp eq i32 %32, 0
  br i1 %33, label %._crit_edge.thread, label %39

._crit_edge.thread:                               ; preds = %7, %._crit_edge
  %34 = tail call noundef nonnull align 8 dereferenceable(8) ptr @_ZNSolsEPFRSoS_E(ptr noundef nonnull align 8 dereferenceable(8) %1, ptr noundef nonnull @_ZSt4endlIcSt11char_traitsIcEERSt13basic_ostreamIT_T0_ES6_)
  %35 = load ptr, ptr @_ZN12AbsExtension4tab_E, align 8
  %36 = tail call noundef nonnull align 8 dereferenceable(8) ptr @_ZStlsISt11char_traitsIcEERSt13basic_ostreamIcT_ES5_PKc(ptr noundef nonnull align 8 dereferenceable(8) %1, ptr noundef %35)
  %37 = load ptr, ptr @_ZN12AbsExtension4tab_E, align 8
  %38 = tail call noundef nonnull align 8 dereferenceable(8) ptr @_ZStlsISt11char_traitsIcEERSt13basic_ostreamIcT_ES5_PKc(ptr noundef nonnull align 8 dereferenceable(8) %36, ptr noundef %37)
  br label %39

39:                                               ; preds = %._crit_edge, %._crit_edge.thread, %3
  %.sink32 = phi i32 [ %2, %3 ], [ %9, %._crit_edge.thread ], [ %9, %._crit_edge ]
  %40 = getelementptr inbounds i8, ptr %0, i64 40
  %41 = sext i32 %.sink32 to i64
  %42 = load ptr, ptr %40, align 8
  %43 = getelementptr inbounds ptr, ptr %42, i64 %41
  %44 = load ptr, ptr %43, align 8
  %45 = load ptr, ptr %44, align 8
  %46 = getelementptr inbounds i8, ptr %45, i64 144
  %47 = load ptr, ptr %46, align 8
  tail call void %47(ptr noundef nonnull align 8 dereferenceable(64) %44, ptr noundef nonnull align 8 dereferenceable(8) %1)
  ret void
}